target datalayout = "e-m:e-p270:32:32-p271:32:32-p272:64:64-i64:64-i128:128-f80:128-n8:16:32:64-S128"
target triple = "x86_64-pc-linux-gnu"

; Function Attrs: nounwind uwtable
define void @Map_MappingSetupTruthTablesLarge(ptr noundef %0) #0 {
  %2 = alloca ptr, align 8
  %3 = alloca i32, align 4
  %4 = alloca i32, align 4
  store ptr %0, ptr %2, align 8, !tbaa !50
  call void @llvm.lifetime.start.p0(i64 4, ptr %3) #4
  call void @llvm.lifetime.start.p0(i64 4, ptr %4) #4
  store i32 0, ptr %3, align 4, !tbaa !10
  br label %5

5:                                                ; preds = %24, %1
  %6 = load i32, ptr %3, align 4, !tbaa !10
  %7 = icmp slt i32 %6, 32
  br i1 %7, label %8, label %27

8:                                                ; preds = %5
  store i32 0, ptr %4, align 4, !tbaa !10
  br label %9

9:                                                ; preds = %20, %8
  %10 = load i32, ptr %4, align 4, !tbaa !10
  %11 = icmp slt i32 %10, 10
  br i1 %11, label %12, label %23

12:                                               ; preds = %9
  %13 = load ptr, ptr %2, align 8, !tbaa !50
  %14 = load i32, ptr %4, align 4, !tbaa !10
  %15 = sext i32 %14 to i64
  %16 = getelementptr inbounds [32 x i32], ptr %13, i64 %15
  %17 = load i32, ptr %3, align 4, !tbaa !10
  %18 = sext i32 %17 to i64
  %19 = getelementptr inbounds [32 x i32], ptr %16, i64 0, i64 %18
  store i32 0, ptr %19, align 4, !tbaa !10
  br label %20

20:                                               ; preds = %12
  %21 = load i32, ptr %4, align 4, !tbaa !10
  %22 = add nsw i32 %21, 1
  store i32 %22, ptr %4, align 4, !tbaa !10
  br label %9, !llvm.loop !57

23:                                               ; preds = %9
  br label %24

24:                                               ; preds = %23
  %25 = load i32, ptr %3, align 4, !tbaa !10
  %26 = add nsw i32 %25, 1
  store i32 %26, ptr %3, align 4, !tbaa !10
  br label %5, !llvm.loop !58

27:                                               ; preds = %5
  store i32 0, ptr %3, align 4, !tbaa !10
  br label %28

28:                                               ; preds = %64, %27
  %29 = load i32, ptr %3, align 4, !tbaa !10
  %30 = icmp slt i32 %29, 32
  br i1 %30, label %31, label %67

31:                                               ; preds = %28
  store i32 0, ptr %4, align 4, !tbaa !10
  br label %32

32:                                               ; preds = %60, %31
  %33 = load i32, ptr %4, align 4, !tbaa !10
  %34 = icmp slt i32 %33, 5
  br i1 %34, label %35, label %63

35:                                               ; preds = %32
  %36 = load i32, ptr %3, align 4, !tbaa !10
  %37 = load i32, ptr %4, align 4, !tbaa !10
  %38 = shl i32 1, %37
  %39 = and i32 %36, %38
  %40 = icmp ne i32 %39, 0
  br i1 %40, label %41, label %59

41:                                               ; preds = %35
  %42 = load i32, ptr %3, align 4, !tbaa !10
  %43 = shl i32 1, %42
  %44 = load ptr, ptr %2, align 8, !tbaa !50
  %45 = load i32, ptr %4, align 4, !tbaa !10
  %46 = sext i32 %45 to i64
  %47 = getelementptr inbounds [32 x i32], ptr %44, i64 %46
  %48 = getelementptr inbounds [32 x i32], ptr %47, i64 0, i64 0
  %49 = load i32, ptr %48, align 4, !tbaa !10
  %50 = or i32 %49, %43
  store i32 %50, ptr %48, align 4, !tbaa !10
  %51 = load ptr, ptr %2, align 8, !tbaa !50
  %52 = load i32, ptr %4, align 4, !tbaa !10
  %53 = add nsw i32 %52, 5
  %54 = sext i32 %53 to i64
  %55 = getelementptr inbounds [32 x i32], ptr %51, i64 %54
  %56 = load i32, ptr %3, align 4, !tbaa !10
  %57 = sext i32 %56 to i64
  %58 = getelementptr inbounds [32 x i32], ptr %55, i64 0, i64 %57
  store i32 -1, ptr %58, align 4, !tbaa !10
  br label %59

59:                                               ; preds = %41, %35
  br label %60

60:                                               ; preds = %59
  %61 = load i32, ptr %4, align 4, !tbaa !10
  %62 = add nsw i32 %61, 1
  store i32 %62, ptr %4, align 4, !tbaa !10
  br label %32, !llvm.loop !59

63:                                               ; preds = %32
  br label %64

64:                                               ; preds = %63
  %65 = load i32, ptr %3, align 4, !tbaa !10
  %66 = add nsw i32 %65, 1
  store i32 %66, ptr %3, align 4, !tbaa !10
  br label %28, !llvm.loop !60

67:                                               ; preds = %28
  store i32 0, ptr %3, align 4, !tbaa !10
  br label %68

68:                                               ; preds = %93, %67
  %69 = load i32, ptr %3, align 4, !tbaa !10
  %70 = icmp slt i32 %69, 32
  br i1 %70, label %71, label %96

71:                                               ; preds = %68
  store i32 0, ptr %4, align 4, !tbaa !10
  br label %72

72:                                               ; preds = %89, %71
  %73 = load i32, ptr %4, align 4, !tbaa !10
  %74 = icmp slt i32 %73, 5
  br i1 %74, label %75, label %92

75:                                               ; preds = %72
  %76 = load ptr, ptr %2, align 8, !tbaa !50
  %77 = load i32, ptr %4, align 4, !tbaa !10
  %78 = sext i32 %77 to i64
  %79 = getelementptr inbounds [32 x i32], ptr %76, i64 %78
  %80 = getelementptr inbounds [32 x i32], ptr %79, i64 0, i64 0
  %81 = load i32, ptr %80, align 4, !tbaa !10
  %82 = load ptr, ptr %2, align 8, !tbaa !50
  %83 = load i32, ptr %4, align 4, !tbaa !10
  %84 = sext i32 %83 to i64
  %85 = getelementptr inbounds [32 x i32], ptr %82, i64 %84
  %86 = load i32, ptr %3, align 4, !tbaa !10
  %87 = sext i32 %86 to i64
  %88 = getelementptr inbounds [32 x i32], ptr %85, i64 0, i64 %87
  store i32 %81, ptr %88, align 4, !tbaa !10
  br label %89

89:                                               ; preds = %75
  %90 = load i32, ptr %4, align 4, !tbaa !10
  %91 = add nsw i32 %90, 1
  store i32 %91, ptr %4, align 4, !tbaa !10
  br label %72, !llvm.loop !61

92:                                               ; preds = %72
  br label %93

93:                                               ; preds = %92
  %94 = load i32, ptr %3, align 4, !tbaa !10
  %95 = add nsw i32 %94, 1
  store i32 %95, ptr %3, align 4, !tbaa !10
  br label %68, !llvm.loop !62

96:                                               ; preds = %68
  call void @llvm.lifetime.end.p0(i64 4, ptr %4) #4
  call void @llvm.lifetime.end.p0(i64 4, ptr %3) #4
  ret void
}